; ModuleID = '20/449.c'
source_filename = "20/449.c"
target datalayout = "e-m:e-p270:32:32-p271:32:32-p272:64:64-i64:64-f80:128-n8:16:32:64-S128"
target triple = "x86_64-pc-linux-gnu"

@.str = private unnamed_addr constant [6 x i8] c"%s %s\00", align 1
@.str.1 = private unnamed_addr constant [3 x i8] c"%c\00", align 1
@.str.2 = private unnamed_addr constant [3 x i8] c"%s\00", align 1
@.str.3 = private unnamed_addr constant [2 x i8] c"\0A\00", align 1

; Function Attrs: noinline nounwind uwtable
define dso_local void @main() #0 {
  %1 = alloca i8*, align 8
  %2 = alloca [10 x i8], align 1
  %3 = alloca [4 x i8], align 1
  %4 = alloca i32, align 4
  %5 = alloca i32, align 4
  br label %6

6:                                                ; preds = %62, %0
  %7 = getelementptr inbounds [10 x i8], [10 x i8]* %2, i64 0, i64 0
  %8 = getelementptr inbounds [4 x i8], [4 x i8]* %3, i64 0, i64 0
  %9 = call i32 (i8*, ...) @__isoc99_scanf(i8* getelementptr inbounds ([6 x i8], [6 x i8]* @.str, i64 0, i64 0), i8* %7, i8* %8)
  %10 = icmp ne i32 %9, -1
  br i1 %10, label %11, label %64

11:                                               ; preds = %6
  %12 = getelementptr inbounds [10 x i8], [10 x i8]* %2, i64 0, i64 0
  %13 = call i64 @strlen(i8* %12) #3
  %14 = trunc i64 %13 to i32
  store i32 %14, i32* %4, align 4
  %15 = getelementptr inbounds [10 x i8], [10 x i8]* %2, i64 0, i64 0
  store i8* %15, i8** %1, align 8
  store i32 1, i32* %5, align 4
  br label %16

16:                                               ; preds = %35, %11
  %17 = load i32, i32* %5, align 4
  %18 = load i32, i32* %4, align 4
  %19 = icmp slt i32 %17, %18
  br i1 %19, label %20, label %38

20:                                               ; preds = %16
  %21 = load i32, i32* %5, align 4
  %22 = sext i32 %21 to i64
  %23 = getelementptr inbounds [10 x i8], [10 x i8]* %2, i64 0, i64 %22
  %24 = load i8, i8* %23, align 1
  %25 = sext i8 %24 to i32
  %26 = load i8*, i8** %1, align 8
  %27 = load i8, i8* %26, align 1
  %28 = sext i8 %27 to i32
  %29 = icmp sgt i32 %25, %28
  br i1 %29, label %30, label %34

30:                                               ; preds = %20
  %31 = load i32, i32* %5, align 4
  %32 = sext i32 %31 to i64
  %33 = getelementptr inbounds [10 x i8], [10 x i8]* %2, i64 0, i64 %32
  store i8* %33, i8** %1, align 8
  br label %34

34:                                               ; preds = %30, %20
  br label %35

35:                                               ; preds = %34
  %36 = load i32, i32* %5, align 4
  %37 = add nsw i32 %36, 1
  store i32 %37, i32* %5, align 4
  br label %16

38:                                               ; preds = %16
  store i32 0, i32* %5, align 4
  br label %39

39:                                               ; preds = %59, %38
  %40 = load i32, i32* %5, align 4
  %41 = load i32, i32* %4, align 4
  %42 = icmp slt i32 %40, %41
  br i1 %42, label %43, label %62

43:                                               ; preds = %39
  %44 = load i32, i32* %5, align 4
  %45 = sext i32 %44 to i64
  %46 = getelementptr inbounds [10 x i8], [10 x i8]* %2, i64 0, i64 %45
  %47 = load i8, i8* %46, align 1
  %48 = sext i8 %47 to i32
  %49 = call i32 (i8*, ...) @printf(i8* getelementptr inbounds ([3 x i8], [3 x i8]* @.str.1, i64 0, i64 0), i32 %48)
  %50 = load i32, i32* %5, align 4
  %51 = sext i32 %50 to i64
  %52 = getelementptr inbounds [10 x i8], [10 x i8]* %2, i64 0, i64 %51
  %53 = load i8*, i8** %1, align 8
  %54 = icmp eq i8* %52, %53
  br i1 %54, label %55, label %58

55:                                               ; preds = %43
  %56 = getelementptr inbounds [4 x i8], [4 x i8]* %3, i64 0, i64 0
  %57 = call i32 (i8*, ...) @printf(i8* getelementptr inbounds ([3 x i8], [3 x i8]* @.str.2, i64 0, i64 0), i8* %56)
  br label %58

58:                                               ; preds = %55, %43
  br label %59

59:                                               ; preds = %58
  %60 = load i32, i32* %5, align 4
  %61 = add nsw i32 %60, 1
  store i32 %61, i32* %5, align 4
  br label %39

62:                                               ; preds = %39
  %63 = call i32 (i8*, ...) @printf(i8* getelementptr inbounds ([2 x i8], [2 x i8]* @.str.3, i64 0, i64 0))
  br label %6

64:                                               ; preds = %6
  ret void
}

declare dso_local i32 @__isoc99_scanf(i8*, ...) #1

; Function Attrs: nounwind readonly
declare dso_local i64 @strlen(i8*) #2

declare dso_local i32 @printf(i8*, ...) #1


!llvm.module.flags = !{!0}
!llvm.ident = !{!1}

!0 = !{i32 1, !"wchar_size", i32 4}
!1 = !{!"clang version 10.0.0-4ubuntu1 "}
